target datalayout = "e-m:e-p270:32:32-p271:32:32-p272:64:64-i64:64-i128:128-f80:128-n8:16:32:64-S128"
target triple = "x86_64-pc-linux-gnu"

%struct.lv_ll_t = type { i32, ptr, ptr }
%struct._lv_spangroup_t = type { %struct._lv_obj_t, i32, i32, i32, i32, %struct.lv_ll_t, i8 }
%struct._lv_obj_t = type { ptr, ptr, ptr, ptr, ptr, %struct.lv_area_t, i32, i16, i16 }
%struct.lv_area_t = type { i32, i32, i32, i32 }

; Function Attrs: nounwind uwtable
define ptr @lv_spangroup_get_child(ptr noundef %0, i32 noundef %1) #0 {
  %3 = alloca ptr, align 8
  %4 = alloca ptr, align 8
  %5 = alloca i32, align 4
  %6 = alloca ptr, align 8
  %7 = alloca ptr, align 8
  %8 = alloca i8, align 1
  %9 = alloca i32, align 4
  %10 = alloca ptr, align 8
  %11 = alloca i32, align 4
  store ptr %0, ptr %4, align 8, !tbaa !3
  store i32 %1, ptr %5, align 4, !tbaa !23
  %12 = load ptr, ptr %4, align 8, !tbaa !3
  %13 = icmp eq ptr %12, null
  br i1 %13, label %14, label %15

14:                                               ; preds = %2
  store ptr null, ptr %3, align 8
  br label %61

15:                                               ; preds = %2
  br label %16

16:                                               ; preds = %15
  br label %17

17:                                               ; preds = %16
  call void @llvm.lifetime.start.p0(i64 8, ptr %6) #6
  %18 = load ptr, ptr %4, align 8, !tbaa !3
  store ptr %18, ptr %6, align 8, !tbaa !3
  call void @llvm.lifetime.start.p0(i64 8, ptr %7) #6
  %19 = load ptr, ptr %6, align 8, !tbaa !3
  %20 = getelementptr inbounds nuw %struct._lv_spangroup_t, ptr %19, i32 0, i32 5
  store ptr %20, ptr %7, align 8, !tbaa !3
  call void @llvm.lifetime.start.p0(i64 1, ptr %8) #6
  %21 = load i32, ptr %5, align 4, !tbaa !23
  %22 = icmp sge i32 %21, 0
  %23 = zext i1 %22 to i8
  store i8 %23, ptr %8, align 1, !tbaa !39
  call void @llvm.lifetime.start.p0(i64 4, ptr %9) #6
  store i32 0, ptr %9, align 4, !tbaa !23
  call void @llvm.lifetime.start.p0(i64 8, ptr %10) #6
  %24 = load ptr, ptr %7, align 8, !tbaa !3
  %25 = getelementptr inbounds nuw %struct.lv_ll_t, ptr %24, i32 0, i32 1
  %26 = load ptr, ptr %25, align 8, !tbaa !40
  store ptr %26, ptr %10, align 8, !tbaa !3
  %27 = load i8, ptr %8, align 1, !tbaa !39, !range !41, !noundef !42
  %28 = trunc i8 %27 to i1
  br i1 %28, label %33, label %29

29:                                               ; preds = %17
  store i32 -1, ptr %9, align 4, !tbaa !23
  %30 = load ptr, ptr %7, align 8, !tbaa !3
  %31 = getelementptr inbounds nuw %struct.lv_ll_t, ptr %30, i32 0, i32 2
  %32 = load ptr, ptr %31, align 8, !tbaa !43
  store ptr %32, ptr %10, align 8, !tbaa !3
  br label %33

33:                                               ; preds = %29, %17
  br label %34

34:                                               ; preds = %58, %33
  %35 = load ptr, ptr %10, align 8, !tbaa !3
  %36 = icmp ne ptr %35, null
  br i1 %36, label %37, label %59

37:                                               ; preds = %34
  %38 = load i32, ptr %9, align 4, !tbaa !23
  %39 = load i32, ptr %5, align 4, !tbaa !23
  %40 = icmp eq i32 %38, %39
  br i1 %40, label %41, label %43

41:                                               ; preds = %37
  %42 = load ptr, ptr %10, align 8, !tbaa !3
  store ptr %42, ptr %3, align 8
  store i32 1, ptr %11, align 4
  br label %60

43:                                               ; preds = %37
  %44 = load i8, ptr %8, align 1, !tbaa !39, !range !41, !noundef !42
  %45 = trunc i8 %44 to i1
  br i1 %45, label %46, label %52

46:                                               ; preds = %43
  %47 = load ptr, ptr %7, align 8, !tbaa !3
  %48 = load ptr, ptr %10, align 8, !tbaa !3
  %49 = call ptr @lv_ll_get_next(ptr noundef %47, ptr noundef %48)
  store ptr %49, ptr %10, align 8, !tbaa !3
  %50 = load i32, ptr %9, align 4, !tbaa !23
  %51 = add nsw i32 %50, 1
  store i32 %51, ptr %9, align 4, !tbaa !23
  br label %58

52:                                               ; preds = %43
  %53 = load ptr, ptr %7, align 8, !tbaa !3
  %54 = load ptr, ptr %10, align 8, !tbaa !3
  %55 = call ptr @lv_ll_get_prev(ptr noundef %53, ptr noundef %54)
  store ptr %55, ptr %10, align 8, !tbaa !3
  %56 = load i32, ptr %9, align 4, !tbaa !23
  %57 = add nsw i32 %56, -1
  store i32 %57, ptr %9, align 4, !tbaa !23
  br label %58

58:                                               ; preds = %52, %46
  br label %34, !llvm.loop !44

59:                                               ; preds = %34
  store ptr null, ptr %3, align 8
  store i32 1, ptr %11, align 4
  br label %60

60:                                               ; preds = %59, %41
  call void @llvm.lifetime.end.p0(i64 8, ptr %10) #6
  call void @llvm.lifetime.end.p0(i64 4, ptr %9) #6
  call void @llvm.lifetime.end.p0(i64 1, ptr %8) #6
  call void @llvm.lifetime.end.p0(i64 8, ptr %7) #6
  call void @llvm.lifetime.end.p0(i64 8, ptr %6) #6
  br label %61

61:                                               ; preds = %60, %14
  %62 = load ptr, ptr %3, align 8
  ret ptr %62
}