; Function Attrs: nounwind uwtable
define ptr @lv_spangroup_get_child(ptr noundef %0, i32 noundef %1) local_unnamed_addr #0 {
  %3 = icmp eq ptr %0, null
  br i1 %3, label %.loopexit, label %4

4:                                                ; preds = %2
  %5 = getelementptr inbounds nuw i8, ptr %0, i64 80
  %6 = icmp slt i32 %1, 0
  %spec.select24.v = select i1 %6, i64 96, i64 88
  %spec.select24 = getelementptr inbounds nuw i8, ptr %0, i64 %spec.select24.v
  %.0 = load ptr, ptr %spec.select24, align 8, !tbaa !74
  %.not25 = icmp eq ptr %.0, null
  br i1 %.not25, label %.loopexit, label %.lr.ph

.lr.ph:                                           ; preds = %4
  %.lobit = ashr i32 %1, 31
  br i1 %6, label %.lr.ph.split.us, label %.lr.ph.split

.lr.ph.split.us:                                  ; preds = %.lr.ph, %8
  %.127.us = phi ptr [ %9, %8 ], [ %.0, %.lr.ph ]
  %.11926.us = phi i32 [ %10, %8 ], [ %.lobit, %.lr.ph ]
  %7 = icmp eq i32 %.11926.us, %1
  br i1 %7, label %.loopexit, label %8

8:                                                ; preds = %.lr.ph.split.us
  %9 = tail call ptr @lv_ll_get_prev(ptr noundef nonnull %5, ptr noundef nonnull %.127.us) #8
  %10 = add nsw i32 %.11926.us, -1
  %.not.us = icmp eq ptr %9, null
  br i1 %.not.us, label %.loopexit, label %.lr.ph.split.us, !llvm.loop !75

.lr.ph.split:                                     ; preds = %.lr.ph, %12
  %.127 = phi ptr [ %13, %12 ], [ %.0, %.lr.ph ]
  %.11926 = phi i32 [ %14, %12 ], [ %.lobit, %.lr.ph ]
  %11 = icmp eq i32 %.11926, %1
  br i1 %11, label %.loopexit, label %12

12:                                               ; preds = %.lr.ph.split
  %13 = tail call ptr @lv_ll_get_next(ptr noundef nonnull %5, ptr noundef nonnull %.127) #8
  %14 = add nuw nsw i32 %.11926, 1
  %.not = icmp eq ptr %13, null
  br i1 %.not, label %.loopexit, label %.lr.ph.split, !llvm.loop !75

.loopexit:                                        ; preds = %12, %.lr.ph.split, %8, %.lr.ph.split.us, %4, %2
  %.021 = phi ptr [ null, %2 ], [ null, %4 ], [ null, %8 ], [ %.127.us, %.lr.ph.split.us ], [ null, %12 ], [ %.127, %.lr.ph.split ]
  ret ptr %.021
}